; Function Attrs: nounwind sspstrong uwtable
define internal void @ivshmem_vector_mask(ptr noundef %dev, i32 noundef %vector) #0 {
entry:
  %call.i = tail call ptr @object_dynamic_cast_assert(ptr noundef %dev, ptr noundef nonnull @.str, ptr noundef nonnull @.str.7, i32 noundef 63, ptr noundef nonnull @__func__.IVSHMEM_COMMON) #11
  %peers = getelementptr inbounds nuw i8, ptr %call.i, i64 3264
  %0 = load ptr, ptr %peers, align 16
  %vm_id = getelementptr inbounds nuw i8, ptr %call.i, i64 2688
  %1 = load i32, ptr %vm_id, align 16
  %idxprom = sext i32 %1 to i64
  %eventfds = getelementptr %struct.Peer, ptr %0, i64 %idxprom, i32 1
  %2 = load ptr, ptr %eventfds, align 8
  %idxprom1 = zext i32 %vector to i64
  %arrayidx2 = getelementptr %struct.EventNotifier, ptr %2, i64 %idxprom1
  %msi_vectors = getelementptr inbounds nuw i8, ptr %call.i, i64 3280
  %3 = load ptr, ptr %msi_vectors, align 16
  %arrayidx4 = getelementptr %struct.MSIVector, ptr %3, i64 %idxprom1
  %4 = load ptr, ptr %arrayidx4, align 8
  %tobool.not = icmp eq ptr %4, null
  br i1 %tobool.not, label %if.then, label %if.end

if.then:                                          ; preds = %entry
  tail call void (ptr, ...) @error_report(ptr noundef nonnull @.str.34, i32 noundef %vector) #11
  br label %return

if.end:                                           ; preds = %entry
  %unmasked = getelementptr inbounds nuw i8, ptr %arrayidx4, i64 12
  %5 = load i8, ptr %unmasked, align 4
  %tobool5 = trunc i8 %5 to i1
  br i1 %tobool5, label %if.end7, label %if.else

if.else:                                          ; preds = %if.end
  tail call void @__assert_fail(ptr noundef nonnull @.str.36, ptr noundef nonnull @.str.7, i32 noundef 317, ptr noundef nonnull @__PRETTY_FUNCTION__.ivshmem_vector_mask) #12
  unreachable

if.end7:                                          ; preds = %if.end
  %6 = load ptr, ptr @kvm_state, align 8
  %virq = getelementptr inbounds nuw i8, ptr %arrayidx4, i64 8
  %7 = load i32, ptr %virq, align 8
  %call8 = tail call i32 @kvm_irqchip_remove_irqfd_notifier_gsi(ptr noundef %6, ptr noundef %arrayidx2, i32 noundef %7) #11
  %cmp = icmp slt i32 %call8, 0
  br i1 %cmp, label %if.then9, label %if.end10

if.then9:                                         ; preds = %if.end7
  tail call void (ptr, ...) @error_report(ptr noundef nonnull @.str.37) #11
  br label %return

if.end10:                                         ; preds = %if.end7
  store i8 0, ptr %unmasked, align 4
  br label %return

return:                                           ; preds = %if.end10, %if.then9, %if.then
  ret void
}